; Function Attrs: mustprogress nofree norecurse nosync nounwind willreturn memory(write, argmem: readwrite, inaccessiblemem: none) uwtable
define dso_local void @_ZN3tev11ImageViewer12setUiVisibleEb(ptr nocapture noundef nonnull align 16 dereferenceable(972) %0, i1 noundef zeroext %1) local_unnamed_addr #11 align 2 {
  br i1 %1, label %8, label %3

3:                                                ; preds = %2
  %4 = getelementptr inbounds i8, ptr %0, i64 928
  %5 = load i32, ptr %4, align 16
  %6 = icmp eq i32 %5, 4
  br i1 %6, label %7, label %8

7:                                                ; preds = %3
  store i32 0, ptr %4, align 16
  br label %8

8:                                                ; preds = %7, %3, %2
  %9 = getelementptr inbounds i8, ptr %0, i64 536
  %10 = load ptr, ptr %9, align 8
  %11 = zext i1 %1 to i8
  %12 = getelementptr inbounds i8, ptr %10, i64 88
  store i8 %11, ptr %12, align 8
  %13 = getelementptr inbounds i8, ptr %0, i64 560
  %14 = load ptr, ptr %13, align 16
  %15 = getelementptr inbounds i8, ptr %0, i64 568
  %16 = load i8, ptr %15, align 8
  %17 = and i8 %16, 1
  %18 = icmp ne i8 %17, 0
  %19 = and i1 %18, %1
  %20 = zext i1 %19 to i8
  %21 = getelementptr inbounds i8, ptr %14, i64 88
  store i8 %20, ptr %21, align 8
  %22 = getelementptr inbounds i8, ptr %0, i64 521
  store i8 1, ptr %22, align 1
  ret void
}